target datalayout = "e-m:e-p270:32:32-p271:32:32-p272:64:64-i64:64-i128:128-f80:128-n8:16:32:64-S128"
target triple = "x86_64-pc-linux-gnu"

%struct.expert_field = type { i32, i32 }

@ei_gsm_a_rr_extraneous_data = internal global %struct.expert_field zeroinitializer, align 4
@ei_gsm_a_rr_missing_mandatory_element = internal global %struct.expert_field zeroinitializer, align 4
@.str.83 = private unnamed_addr constant [62 x i8] c"Missing Mandatory element %s%s, rest of dissection is suspect\00", align 1
@.str.84 = private unnamed_addr constant [1 x i8] zeroinitializer, align 1

; Function Attrs: null_pointer_is_valid sspstrong uwtable
define internal void @dtap_rr_gprs_sus_req(ptr noundef %0, ptr noundef %1, ptr noundef %2, i32 noundef %3, i32 noundef %4) #1 {
  %6 = alloca ptr, align 8
  %7 = alloca ptr, align 8
  %8 = alloca ptr, align 8
  %9 = alloca i32, align 4
  %10 = alloca i32, align 4
  %11 = alloca i32, align 4
  %12 = alloca i32, align 4
  %13 = alloca i32, align 4
  %14 = alloca i32, align 4
  store ptr %0, ptr %6, align 8
  store ptr %1, ptr %7, align 8
  store ptr %2, ptr %8, align 8
  store i32 %3, ptr %9, align 4
  store i32 %4, ptr %10, align 4
  call void @llvm.lifetime.start.p0(i64 4, ptr %11) #11
  call void @llvm.lifetime.start.p0(i64 4, ptr %12) #11
  call void @llvm.lifetime.start.p0(i64 4, ptr %13) #11
  %15 = load i32, ptr %9, align 4
  store i32 %15, ptr %11, align 4
  %16 = load i32, ptr %10, align 4
  store i32 %16, ptr %13, align 4
  %17 = load i32, ptr %13, align 4
  %18 = icmp sgt i32 %17, 0
  br i1 %18, label %19, label %34

19:                                               ; preds = %5
  %20 = load ptr, ptr %6, align 8
  %21 = load ptr, ptr %7, align 8
  %22 = load ptr, ptr %8, align 8
  %23 = load i32, ptr %11, align 4
  %24 = call zeroext i16 @elem_v(ptr noundef %20, ptr noundef %21, ptr noundef %22, i32 noundef 3, i32 noundef 68, i32 noundef %23, ptr noundef null)
  %25 = zext i16 %24 to i32
  store i32 %25, ptr %12, align 4
  %26 = icmp ugt i32 %25, 0
  br i1 %26, label %27, label %34

27:                                               ; preds = %19
  %28 = load i32, ptr %12, align 4
  %29 = load i32, ptr %11, align 4
  %30 = add i32 %29, %28
  store i32 %30, ptr %11, align 4
  %31 = load i32, ptr %12, align 4
  %32 = load i32, ptr %13, align 4
  %33 = sub i32 %32, %31
  store i32 %33, ptr %13, align 4
  br label %41

34:                                               ; preds = %19, %5
  %35 = load ptr, ptr %7, align 8
  %36 = load ptr, ptr %8, align 8
  %37 = load ptr, ptr %6, align 8
  %38 = load i32, ptr %11, align 4
  %39 = call ptr @get_gsm_a_msg_string(i32 noundef 3, i32 noundef 68)
  %40 = call ptr (ptr, ptr, ptr, ptr, i32, i32, ptr, ...) @proto_tree_add_expert_format(ptr noundef %35, ptr noundef %36, ptr noundef @ei_gsm_a_rr_missing_mandatory_element, ptr noundef %37, i32 noundef %38, i32 noundef 0, ptr noundef @.str.83, ptr noundef %39, ptr noundef @.str.84)
  br label %41

41:                                               ; preds = %34, %27
  %42 = load i32, ptr %13, align 4
  %43 = icmp sgt i32 %42, 0
  br i1 %43, label %44, label %59

44:                                               ; preds = %41
  %45 = load ptr, ptr %6, align 8
  %46 = load ptr, ptr %7, align 8
  %47 = load ptr, ptr %8, align 8
  %48 = load i32, ptr %11, align 4
  %49 = call zeroext i16 @elem_v(ptr noundef %45, ptr noundef %46, ptr noundef %47, i32 noundef 5, i32 noundef 18, i32 noundef %48, ptr noundef null)
  %50 = zext i16 %49 to i32
  store i32 %50, ptr %12, align 4
  %51 = icmp ugt i32 %50, 0
  br i1 %51, label %52, label %59

52:                                               ; preds = %44
  %53 = load i32, ptr %12, align 4
  %54 = load i32, ptr %11, align 4
  %55 = add i32 %54, %53
  store i32 %55, ptr %11, align 4
  %56 = load i32, ptr %12, align 4
  %57 = load i32, ptr %13, align 4
  %58 = sub i32 %57, %56
  store i32 %58, ptr %13, align 4
  br label %66

59:                                               ; preds = %44, %41
  %60 = load ptr, ptr %7, align 8
  %61 = load ptr, ptr %8, align 8
  %62 = load ptr, ptr %6, align 8
  %63 = load i32, ptr %11, align 4
  %64 = call ptr @get_gsm_a_msg_string(i32 noundef 5, i32 noundef 18)
  %65 = call ptr (ptr, ptr, ptr, ptr, i32, i32, ptr, ...) @proto_tree_add_expert_format(ptr noundef %60, ptr noundef %61, ptr noundef @ei_gsm_a_rr_missing_mandatory_element, ptr noundef %62, i32 noundef %63, i32 noundef 0, ptr noundef @.str.83, ptr noundef %64, ptr noundef @.str.84)
  br label %66

66:                                               ; preds = %59, %52
  %67 = load i32, ptr %13, align 4
  %68 = icmp sgt i32 %67, 0
  br i1 %68, label %69, label %84

69:                                               ; preds = %66
  %70 = load ptr, ptr %6, align 8
  %71 = load ptr, ptr %7, align 8
  %72 = load ptr, ptr %8, align 8
  %73 = load i32, ptr %11, align 4
  %74 = call zeroext i16 @elem_v(ptr noundef %70, ptr noundef %71, ptr noundef %72, i32 noundef 3, i32 noundef 75, i32 noundef %73, ptr noundef null)
  %75 = zext i16 %74 to i32
  store i32 %75, ptr %12, align 4
  %76 = icmp ugt i32 %75, 0
  br i1 %76, label %77, label %84

77:                                               ; preds = %69
  %78 = load i32, ptr %12, align 4
  %79 = load i32, ptr %11, align 4
  %80 = add i32 %79, %78
  store i32 %80, ptr %11, align 4
  %81 = load i32, ptr %12, align 4
  %82 = load i32, ptr %13, align 4
  %83 = sub i32 %82, %81
  store i32 %83, ptr %13, align 4
  br label %91

84:                                               ; preds = %69, %66
  %85 = load ptr, ptr %7, align 8
  %86 = load ptr, ptr %8, align 8
  %87 = load ptr, ptr %6, align 8
  %88 = load i32, ptr %11, align 4
  %89 = call ptr @get_gsm_a_msg_string(i32 noundef 3, i32 noundef 75)
  %90 = call ptr (ptr, ptr, ptr, ptr, i32, i32, ptr, ...) @proto_tree_add_expert_format(ptr noundef %85, ptr noundef %86, ptr noundef @ei_gsm_a_rr_missing_mandatory_element, ptr noundef %87, i32 noundef %88, i32 noundef 0, ptr noundef @.str.83, ptr noundef %89, ptr noundef @.str.84)
  br label %91

91:                                               ; preds = %84, %77
  %92 = load i32, ptr %13, align 4
  %93 = icmp sle i32 %92, 0
  br i1 %93, label %94, label %95

94:                                               ; preds = %91
  store i32 1, ptr %14, align 4
  br label %135

95:                                               ; preds = %91
  %96 = load ptr, ptr %6, align 8
  %97 = load ptr, ptr %7, align 8
  %98 = load ptr, ptr %8, align 8
  %99 = load i32, ptr %11, align 4
  %100 = call zeroext i16 @elem_tv_short(ptr noundef %96, ptr noundef %97, ptr noundef %98, i8 noundef zeroext 1, i32 noundef 3, i32 noundef 80, i32 noundef %99, ptr noundef null)
  %101 = zext i16 %100 to i32
  store i32 %101, ptr %12, align 4
  %102 = icmp ugt i32 %101, 0
  br i1 %102, label %103, label %110

103:                                              ; preds = %95
  %104 = load i32, ptr %12, align 4
  %105 = load i32, ptr %11, align 4
  %106 = add i32 %105, %104
  store i32 %106, ptr %11, align 4
  %107 = load i32, ptr %12, align 4
  %108 = load i32, ptr %13, align 4
  %109 = sub i32 %108, %107
  store i32 %109, ptr %13, align 4
  br label %110

110:                                              ; preds = %103, %95
  %111 = load i32, ptr %10, align 4
  %112 = load i32, ptr %11, align 4
  %113 = load i32, ptr %9, align 4
  %114 = sub i32 %112, %113
  %115 = icmp ugt i32 %111, %114
  br i1 %115, label %116, label %134

116:                                              ; preds = %110
  %117 = load ptr, ptr %7, align 8
  %118 = load ptr, ptr %8, align 8
  %119 = load ptr, ptr %6, align 8
  %120 = load i32, ptr %11, align 4
  %121 = load i32, ptr %10, align 4
  %122 = load i32, ptr %11, align 4
  %123 = load i32, ptr %9, align 4
  %124 = sub i32 %122, %123
  %125 = sub i32 %121, %124
  %126 = call ptr @proto_tree_add_expert(ptr noundef %117, ptr noundef %118, ptr noundef @ei_gsm_a_rr_extraneous_data, ptr noundef %119, i32 noundef %120, i32 noundef %125)
  %127 = load i32, ptr %10, align 4
  %128 = load i32, ptr %11, align 4
  %129 = load i32, ptr %9, align 4
  %130 = sub i32 %128, %129
  %131 = sub i32 %127, %130
  %132 = load i32, ptr %11, align 4
  %133 = add i32 %132, %131
  store i32 %133, ptr %11, align 4
  br label %134

134:                                              ; preds = %116, %110
  store i32 0, ptr %14, align 4
  br label %135

135:                                              ; preds = %134, %94
  call void @llvm.lifetime.end.p0(i64 4, ptr %13) #11
  call void @llvm.lifetime.end.p0(i64 4, ptr %12) #11
  call void @llvm.lifetime.end.p0(i64 4, ptr %11) #11
  %136 = load i32, ptr %14, align 4
  switch i32 %136, label %138 [
    i32 0, label %137
    i32 1, label %137
  ]

137:                                              ; preds = %135, %135
  ret void

138:                                              ; preds = %135
  unreachable
}